; Function Attrs: mustprogress nounwind uwtable
define hidden noundef i32 @_Z14write__packageP19JfrCheckpointWriterPKv(ptr noundef %0, ptr noundef %1) local_unnamed_addr #0 {
  %3 = load i8, ptr @_ZL11_flushpoint, align 1
  %4 = trunc nuw i8 %3 to i1
  %5 = load i8, ptr @_ZL13_class_unload, align 1
  %6 = trunc nuw i8 %5 to i1
  %7 = select i1 %4, i1 true, i1 %6
  br i1 %7, label %8, label %_ZL14set_serializedI12PackageEntryEvPKT_.exit

8:                                                ; preds = %2
  %9 = load i8, ptr @_ZN15JfrTraceIdEpoch12_epoch_stateE, align 1
  %10 = trunc i8 %9 to i1
  %11 = select i1 %10, i8 -3, i8 -2
  %12 = getelementptr inbounds i8, ptr %1, i64 33
  br label %13

13:                                               ; preds = %17, %8
  %14 = load volatile i8, ptr %12, align 1
  %15 = and i8 %14, %11
  %16 = icmp eq i8 %14, %15
  br i1 %16, label %_ZL14set_serializedI12PackageEntryEvPKT_.exit, label %17

17:                                               ; preds = %13
  %18 = tail call noundef i8 asm sideeffect "lock cmpxchgb $1,($3)", "={ax},q,{ax},r,~{cc},~{memory},~{dirflag},~{fpsr},~{flags}"(i8 %15, i8 %14, ptr nonnull %12) #9, !srcloc !7
  %19 = icmp eq i8 %18, %14
  br i1 %19, label %_ZL14set_serializedI12PackageEntryEvPKT_.exit, label %13, !llvm.loop !8

_ZL14set_serializedI12PackageEntryEvPKT_.exit:    ; preds = %13, %17, %2
  %20 = getelementptr inbounds i8, ptr %1, i64 33
  %21 = load i8, ptr %20, align 1
  %22 = or i8 %21, 16
  store i8 %22, ptr %20, align 1
  tail call void asm sideeffect "", "~{memory},~{dirflag},~{fpsr},~{flags}"() #9, !srcloc !6
  tail call fastcc void @_ZL13write_packageP19JfrCheckpointWriterPK12PackageEntryb(ptr noundef %0, ptr noundef %1, i1 noundef zeroext false)
  ret i32 1
}